target datalayout = "e-m:e-p270:32:32-p271:32:32-p272:64:64-i64:64-i128:128-f80:128-n8:16:32:64-S128"
target triple = "x86_64-pc-linux-gnu"

%struct.lean_object = type { i32, i32 }
%struct.lean_ctor_object = type { %struct.lean_object, [0 x ptr] }

@l_Lean_Widget_instToStringExprDiff___closed__1 = internal global ptr null, align 8
@l_Lean_Widget_instToStringExprDiff___closed__2 = internal global ptr null, align 8
@l_Lean_Widget_initFn____x40_Lean_Widget_Diff___hyg_5____closed__3 = internal global ptr null, align 8

; Function Attrs: inlinehint nounwind uwtable
define internal ptr @lean_to_ctor(ptr noundef %0) #0 {
  %2 = alloca ptr, align 8
  store ptr %0, ptr %2, align 8, !tbaa !8
  %3 = load ptr, ptr %2, align 8, !tbaa !8
  ret ptr %3
}

; Function Attrs: alwaysinline nounwind uwtable
define internal void @lean_dec_ref(ptr noundef %0) #1 {
  %2 = alloca ptr, align 8
  store ptr %0, ptr %2, align 8, !tbaa !8
  %3 = load ptr, ptr %2, align 8, !tbaa !8
  %4 = getelementptr inbounds nuw %struct.lean_object, ptr %3, i32 0, i32 0
  %5 = load i32, ptr %4, align 4, !tbaa !17
  %6 = icmp sgt i32 %5, 1
  %7 = zext i1 %6 to i32
  %8 = sext i32 %7 to i64
  %9 = call i64 @llvm.expect.i64(i64 %8, i64 1)
  %10 = icmp ne i64 %9, 0
  br i1 %10, label %11, label %16

11:                                               ; preds = %1
  %12 = load ptr, ptr %2, align 8, !tbaa !8
  %13 = getelementptr inbounds nuw %struct.lean_object, ptr %12, i32 0, i32 0
  %14 = load i32, ptr %13, align 4, !tbaa !17
  %15 = add i32 %14, -1
  store i32 %15, ptr %13, align 4, !tbaa !17
  br label %24

16:                                               ; preds = %1
  %17 = load ptr, ptr %2, align 8, !tbaa !8
  %18 = getelementptr inbounds nuw %struct.lean_object, ptr %17, i32 0, i32 0
  %19 = load i32, ptr %18, align 4, !tbaa !17
  %20 = icmp ne i32 %19, 0
  br i1 %20, label %21, label %23

21:                                               ; preds = %16
  %22 = load ptr, ptr %2, align 8, !tbaa !8
  call void @lean_dec_ref_cold(ptr noundef %22)
  br label %23

23:                                               ; preds = %21, %16
  br label %24

24:                                               ; preds = %23, %11
  ret void
}

; Function Attrs: alwaysinline nounwind uwtable
define internal zeroext i1 @lean_is_scalar(ptr noundef %0) #1 {
  %2 = alloca ptr, align 8
  store ptr %0, ptr %2, align 8, !tbaa !8
  %3 = load ptr, ptr %2, align 8, !tbaa !8
  %4 = ptrtoint ptr %3 to i64
  %5 = and i64 %4, 1
  %6 = icmp eq i64 %5, 1
  ret i1 %6
}

; Function Attrs: inlinehint nounwind uwtable
define internal ptr @lean_ctor_obj_cptr(ptr noundef %0) #0 {
  %2 = alloca ptr, align 8
  store ptr %0, ptr %2, align 8, !tbaa !8
  %3 = load ptr, ptr %2, align 8, !tbaa !8
  %4 = call ptr @lean_to_ctor(ptr noundef %3)
  %5 = getelementptr inbounds nuw %struct.lean_ctor_object, ptr %4, i32 0, i32 1
  %6 = getelementptr inbounds [0 x ptr], ptr %5, i64 0, i64 0
  ret ptr %6
}

; Function Attrs: alwaysinline nounwind uwtable
define internal void @lean_dec(ptr noundef %0) #1 {
  %2 = alloca ptr, align 8
  store ptr %0, ptr %2, align 8, !tbaa !8
  %3 = load ptr, ptr %2, align 8, !tbaa !8
  %4 = call zeroext i1 @lean_is_scalar(ptr noundef %3)
  br i1 %4, label %7, label %5

5:                                                ; preds = %1
  %6 = load ptr, ptr %2, align 8, !tbaa !8
  call void @lean_dec_ref(ptr noundef %6)
  br label %7

7:                                                ; preds = %5, %1
  ret void
}

; Function Attrs: inlinehint nounwind uwtable
define internal ptr @lean_box(i64 noundef %0) #0 {
  %2 = alloca i64, align 8
  store i64 %0, ptr %2, align 8, !tbaa !4
  %3 = load i64, ptr %2, align 8, !tbaa !4
  %4 = shl i64 %3, 1
  %5 = or i64 %4, 1
  %6 = inttoptr i64 %5 to ptr
  ret ptr %6
}

; Function Attrs: nounwind uwtable
define ptr @l_Lean_RBMap_toList___at_Lean_Widget_instToStringExprDiff___spec__1(ptr noundef %0) #2 {
  %2 = alloca ptr, align 8
  %3 = alloca ptr, align 8
  %4 = alloca ptr, align 8
  store ptr %0, ptr %2, align 8, !tbaa !8
  br label %5

5:                                                ; preds = %1
  call void @llvm.lifetime.start.p0(i64 8, ptr %3) #7
  call void @llvm.lifetime.start.p0(i64 8, ptr %4) #7
  %6 = call ptr @lean_box(i64 noundef 0)
  store ptr %6, ptr %3, align 8, !tbaa !8
  %7 = load ptr, ptr %3, align 8, !tbaa !8
  %8 = load ptr, ptr %2, align 8, !tbaa !8
  %9 = call ptr @l_Lean_RBNode_revFold___at_Lean_Widget_instToStringExprDiff___spec__2(ptr noundef %7, ptr noundef %8)
  store ptr %9, ptr %4, align 8, !tbaa !8
  %10 = load ptr, ptr %4, align 8, !tbaa !8
  call void @llvm.lifetime.end.p0(i64 8, ptr %4) #7
  call void @llvm.lifetime.end.p0(i64 8, ptr %3) #7
  ret ptr %10
}

; Function Attrs: inlinehint nounwind uwtable
define internal ptr @lean_ctor_get(ptr noundef %0, i32 noundef %1) #0 {
  %3 = alloca ptr, align 8
  %4 = alloca i32, align 4
  store ptr %0, ptr %3, align 8, !tbaa !8
  store i32 %1, ptr %4, align 4, !tbaa !13
  %5 = load ptr, ptr %3, align 8, !tbaa !8
  %6 = call ptr @lean_ctor_obj_cptr(ptr noundef %5)
  %7 = load i32, ptr %4, align 4, !tbaa !13
  %8 = zext i32 %7 to i64
  %9 = getelementptr inbounds nuw ptr, ptr %6, i64 %8
  %10 = load ptr, ptr %9, align 8, !tbaa !8
  ret ptr %10
}

; Function Attrs: nounwind uwtable
define ptr @l_Lean_Widget_instToStringExprDiff(ptr noundef %0) #2 {
  %2 = alloca ptr, align 8
  %3 = alloca ptr, align 8
  %4 = alloca ptr, align 8
  %5 = alloca ptr, align 8
  %6 = alloca ptr, align 8
  %7 = alloca ptr, align 8
  %8 = alloca ptr, align 8
  %9 = alloca ptr, align 8
  %10 = alloca ptr, align 8
  %11 = alloca ptr, align 8
  %12 = alloca ptr, align 8
  %13 = alloca ptr, align 8
  %14 = alloca ptr, align 8
  %15 = alloca ptr, align 8
  %16 = alloca ptr, align 8
  %17 = alloca ptr, align 8
  %18 = alloca ptr, align 8
  store ptr %0, ptr %2, align 8, !tbaa !8
  br label %19

19:                                               ; preds = %1
  call void @llvm.lifetime.start.p0(i64 8, ptr %3) #7
  call void @llvm.lifetime.start.p0(i64 8, ptr %4) #7
  call void @llvm.lifetime.start.p0(i64 8, ptr %5) #7
  call void @llvm.lifetime.start.p0(i64 8, ptr %6) #7
  call void @llvm.lifetime.start.p0(i64 8, ptr %7) #7
  call void @llvm.lifetime.start.p0(i64 8, ptr %8) #7
  call void @llvm.lifetime.start.p0(i64 8, ptr %9) #7
  call void @llvm.lifetime.start.p0(i64 8, ptr %10) #7
  call void @llvm.lifetime.start.p0(i64 8, ptr %11) #7
  call void @llvm.lifetime.start.p0(i64 8, ptr %12) #7
  call void @llvm.lifetime.start.p0(i64 8, ptr %13) #7
  call void @llvm.lifetime.start.p0(i64 8, ptr %14) #7
  call void @llvm.lifetime.start.p0(i64 8, ptr %15) #7
  call void @llvm.lifetime.start.p0(i64 8, ptr %16) #7
  call void @llvm.lifetime.start.p0(i64 8, ptr %17) #7
  call void @llvm.lifetime.start.p0(i64 8, ptr %18) #7
  %20 = load ptr, ptr %2, align 8, !tbaa !8
  %21 = call ptr @lean_ctor_get(ptr noundef %20, i32 noundef 0)
  store ptr %21, ptr %3, align 8, !tbaa !8
  %22 = load ptr, ptr %3, align 8, !tbaa !8
  %23 = call ptr @l_Lean_RBMap_toList___at_Lean_Widget_instToStringExprDiff___spec__1(ptr noundef %22)
  store ptr %23, ptr %4, align 8, !tbaa !8
  %24 = call ptr @lean_box(i64 noundef 0)
  store ptr %24, ptr %5, align 8, !tbaa !8
  %25 = load ptr, ptr %4, align 8, !tbaa !8
  %26 = load ptr, ptr %5, align 8, !tbaa !8
  %27 = call ptr @l_List_mapTR_loop___at_Lean_Widget_instToStringExprDiff___spec__3(ptr noundef %25, ptr noundef %26)
  store ptr %27, ptr %6, align 8, !tbaa !8
  %28 = load ptr, ptr %6, align 8, !tbaa !8
  %29 = call ptr @l_List_toString___at_Lean_rewriteManualLinksCore_rw___spec__1(ptr noundef %28)
  store ptr %29, ptr %7, align 8, !tbaa !8
  %30 = load ptr, ptr %6, align 8, !tbaa !8
  call void @lean_dec(ptr noundef %30)
  %31 = load ptr, ptr @l_Lean_Widget_instToStringExprDiff___closed__1, align 8, !tbaa !8
  store ptr %31, ptr %8, align 8, !tbaa !8
  %32 = load ptr, ptr %8, align 8, !tbaa !8
  %33 = load ptr, ptr %7, align 8, !tbaa !8
  %34 = call ptr @lean_string_append(ptr noundef %32, ptr noundef %33)
  store ptr %34, ptr %9, align 8, !tbaa !8
  %35 = load ptr, ptr %7, align 8, !tbaa !8
  call void @lean_dec(ptr noundef %35)
  %36 = load ptr, ptr @l_Lean_Widget_instToStringExprDiff___closed__2, align 8, !tbaa !8
  store ptr %36, ptr %10, align 8, !tbaa !8
  %37 = load ptr, ptr %9, align 8, !tbaa !8
  %38 = load ptr, ptr %10, align 8, !tbaa !8
  %39 = call ptr @lean_string_append(ptr noundef %37, ptr noundef %38)
  store ptr %39, ptr %11, align 8, !tbaa !8
  %40 = load ptr, ptr %2, align 8, !tbaa !8
  %41 = call ptr @lean_ctor_get(ptr noundef %40, i32 noundef 1)
  store ptr %41, ptr %12, align 8, !tbaa !8
  %42 = load ptr, ptr %12, align 8, !tbaa !8
  %43 = call ptr @l_Lean_RBMap_toList___at_Lean_Widget_instToStringExprDiff___spec__1(ptr noundef %42)
  store ptr %43, ptr %13, align 8, !tbaa !8
  %44 = load ptr, ptr %13, align 8, !tbaa !8
  %45 = load ptr, ptr %5, align 8, !tbaa !8
  %46 = call ptr @l_List_mapTR_loop___at_Lean_Widget_instToStringExprDiff___spec__3(ptr noundef %44, ptr noundef %45)
  store ptr %46, ptr %14, align 8, !tbaa !8
  %47 = load ptr, ptr %14, align 8, !tbaa !8
  %48 = call ptr @l_List_toString___at_Lean_rewriteManualLinksCore_rw___spec__1(ptr noundef %47)
  store ptr %48, ptr %15, align 8, !tbaa !8
  %49 = load ptr, ptr %14, align 8, !tbaa !8
  call void @lean_dec(ptr noundef %49)
  %50 = load ptr, ptr %11, align 8, !tbaa !8
  %51 = load ptr, ptr %15, align 8, !tbaa !8
  %52 = call ptr @lean_string_append(ptr noundef %50, ptr noundef %51)
  store ptr %52, ptr %16, align 8, !tbaa !8
  %53 = load ptr, ptr %15, align 8, !tbaa !8
  call void @lean_dec(ptr noundef %53)
  %54 = load ptr, ptr @l_Lean_Widget_initFn____x40_Lean_Widget_Diff___hyg_5____closed__3, align 8, !tbaa !8
  store ptr %54, ptr %17, align 8, !tbaa !8
  %55 = load ptr, ptr %16, align 8, !tbaa !8
  %56 = load ptr, ptr %17, align 8, !tbaa !8
  %57 = call ptr @lean_string_append(ptr noundef %55, ptr noundef %56)
  store ptr %57, ptr %18, align 8, !tbaa !8
  %58 = load ptr, ptr %18, align 8, !tbaa !8
  call void @llvm.lifetime.end.p0(i64 8, ptr %18) #7
  call void @llvm.lifetime.end.p0(i64 8, ptr %17) #7
  call void @llvm.lifetime.end.p0(i64 8, ptr %16) #7
  call void @llvm.lifetime.end.p0(i64 8, ptr %15) #7
  call void @llvm.lifetime.end.p0(i64 8, ptr %14) #7
  call void @llvm.lifetime.end.p0(i64 8, ptr %13) #7
  call void @llvm.lifetime.end.p0(i64 8, ptr %12) #7
  call void @llvm.lifetime.end.p0(i64 8, ptr %11) #7
  call void @llvm.lifetime.end.p0(i64 8, ptr %10) #7
  call void @llvm.lifetime.end.p0(i64 8, ptr %9) #7
  call void @llvm.lifetime.end.p0(i64 8, ptr %8) #7
  call void @llvm.lifetime.end.p0(i64 8, ptr %7) #7
  call void @llvm.lifetime.end.p0(i64 8, ptr %6) #7
  call void @llvm.lifetime.end.p0(i64 8, ptr %5) #7
  call void @llvm.lifetime.end.p0(i64 8, ptr %4) #7
  call void @llvm.lifetime.end.p0(i64 8, ptr %3) #7
  ret ptr %58
}