; Function Attrs: nounwind uwtable
define ptr @l_Lean_Widget_instToStringExprDiff(ptr noundef readonly captures(none) %0) local_unnamed_addr #0 {
  %2 = getelementptr inbounds nuw i8, ptr %0, i64 8
  %3 = load ptr, ptr %2, align 8, !tbaa !4
  %4 = tail call ptr @l_Lean_RBNode_revFold___at_Lean_Widget_instToStringExprDiff___spec__2(ptr noundef nonnull inttoptr (i64 1 to ptr), ptr noundef %3)
  %5 = tail call ptr @l_List_mapTR_loop___at_Lean_Widget_instToStringExprDiff___spec__3(ptr noundef %4, ptr noundef nonnull inttoptr (i64 1 to ptr))
  %6 = tail call ptr @l_List_toString___at_Lean_rewriteManualLinksCore_rw___spec__1(ptr noundef %5) #7
  %7 = ptrtoint ptr %5 to i64
  %8 = and i64 %7, 1
  %.not = icmp eq i64 %8, 0
  br i1 %.not, label %9, label %lean_dec.exit25

9:                                                ; preds = %1
  %10 = load i32, ptr %5, align 4, !tbaa !8
  %11 = icmp sgt i32 %10, 1
  br i1 %11, label %12, label %14, !prof !11

12:                                               ; preds = %9
  %13 = add nsw i32 %10, -1
  store i32 %13, ptr %5, align 4, !tbaa !8
  br label %lean_dec.exit25

14:                                               ; preds = %9
  %.not.i = icmp eq i32 %10, 0
  br i1 %.not.i, label %lean_dec.exit25, label %15

15:                                               ; preds = %14
  tail call void @lean_dec_ref_cold(ptr noundef nonnull %5) #7
  br label %lean_dec.exit25

lean_dec.exit25:                                  ; preds = %15, %14, %12, %1
  %16 = load ptr, ptr @l_Lean_Widget_instToStringExprDiff___closed__1, align 8, !tbaa !4
  %17 = tail call ptr @lean_string_append(ptr noundef %16, ptr noundef %6) #7
  %18 = ptrtoint ptr %6 to i64
  %19 = and i64 %18, 1
  %.not32 = icmp eq i64 %19, 0
  br i1 %.not32, label %20, label %lean_dec.exit24

20:                                               ; preds = %lean_dec.exit25
  %21 = load i32, ptr %6, align 4, !tbaa !8
  %22 = icmp sgt i32 %21, 1
  br i1 %22, label %23, label %25, !prof !11

23:                                               ; preds = %20
  %24 = add nsw i32 %21, -1
  store i32 %24, ptr %6, align 4, !tbaa !8
  br label %lean_dec.exit24

25:                                               ; preds = %20
  %.not.i26 = icmp eq i32 %21, 0
  br i1 %.not.i26, label %lean_dec.exit24, label %26

26:                                               ; preds = %25
  tail call void @lean_dec_ref_cold(ptr noundef nonnull %6) #7
  br label %lean_dec.exit24

lean_dec.exit24:                                  ; preds = %26, %25, %23, %lean_dec.exit25
  %27 = load ptr, ptr @l_Lean_Widget_instToStringExprDiff___closed__2, align 8, !tbaa !4
  %28 = tail call ptr @lean_string_append(ptr noundef %17, ptr noundef %27) #7
  %29 = getelementptr inbounds nuw i8, ptr %0, i64 16
  %30 = load ptr, ptr %29, align 8, !tbaa !4
  %31 = tail call ptr @l_Lean_RBNode_revFold___at_Lean_Widget_instToStringExprDiff___spec__2(ptr noundef nonnull inttoptr (i64 1 to ptr), ptr noundef %30)
  %32 = tail call ptr @l_List_mapTR_loop___at_Lean_Widget_instToStringExprDiff___spec__3(ptr noundef %31, ptr noundef nonnull inttoptr (i64 1 to ptr))
  %33 = tail call ptr @l_List_toString___at_Lean_rewriteManualLinksCore_rw___spec__1(ptr noundef %32) #7
  %34 = ptrtoint ptr %32 to i64
  %35 = and i64 %34, 1
  %.not33 = icmp eq i64 %35, 0
  br i1 %.not33, label %36, label %lean_dec.exit23

36:                                               ; preds = %lean_dec.exit24
  %37 = load i32, ptr %32, align 4, !tbaa !8
  %38 = icmp sgt i32 %37, 1
  br i1 %38, label %39, label %41, !prof !11

39:                                               ; preds = %36
  %40 = add nsw i32 %37, -1
  store i32 %40, ptr %32, align 4, !tbaa !8
  br label %lean_dec.exit23

41:                                               ; preds = %36
  %.not.i28 = icmp eq i32 %37, 0
  br i1 %.not.i28, label %lean_dec.exit23, label %42

42:                                               ; preds = %41
  tail call void @lean_dec_ref_cold(ptr noundef nonnull %32) #7
  br label %lean_dec.exit23

lean_dec.exit23:                                  ; preds = %42, %41, %39, %lean_dec.exit24
  %43 = tail call ptr @lean_string_append(ptr noundef %28, ptr noundef %33) #7
  %44 = ptrtoint ptr %33 to i64
  %45 = and i64 %44, 1
  %.not34 = icmp eq i64 %45, 0
  br i1 %.not34, label %46, label %lean_dec.exit

46:                                               ; preds = %lean_dec.exit23
  %47 = load i32, ptr %33, align 4, !tbaa !8
  %48 = icmp sgt i32 %47, 1
  br i1 %48, label %49, label %51, !prof !11

49:                                               ; preds = %46
  %50 = add nsw i32 %47, -1
  store i32 %50, ptr %33, align 4, !tbaa !8
  br label %lean_dec.exit

51:                                               ; preds = %46
  %.not.i30 = icmp eq i32 %47, 0
  br i1 %.not.i30, label %lean_dec.exit, label %52

52:                                               ; preds = %51
  tail call void @lean_dec_ref_cold(ptr noundef nonnull %33) #7
  br label %lean_dec.exit

lean_dec.exit:                                    ; preds = %52, %51, %49, %lean_dec.exit23
  %53 = load ptr, ptr @l_Lean_Widget_initFn____x40_Lean_Widget_Diff___hyg_5____closed__3, align 8, !tbaa !4
  %54 = tail call ptr @lean_string_append(ptr noundef %43, ptr noundef %53) #7
  ret ptr %54
}